target datalayout = "e-m:e-p270:32:32-p271:32:32-p272:64:64-i64:64-i128:128-f80:128-n8:16:32:64-S128"
target triple = "x86_64-unknown-linux-gnu"

%"class.std::__cxx11::basic_string" = type { %"struct.std::__cxx11::basic_string<char>::_Alloc_hider", i64, %union.anon }
%"struct.std::__cxx11::basic_string<char>::_Alloc_hider" = type { ptr }
%union.anon = type { i64, [8 x i8] }

@.str.2 = private unnamed_addr constant [2 x i8] c"/\00", align 1

; Function Attrs: mustprogress uwtable
define noundef zeroext i1 @_ZN7rocksdb20FaultInjectionTestFS16TryParseFileNameERKNSt7__cxx1112basic_stringIcSt11char_traitsIcESaIcEEEPmPNS_8FileTypeE(ptr noundef nonnull align 8 dereferenceable(371) %this, ptr noundef nonnull align 8 dereferenceable(32) %file_name, ptr noundef %number, ptr noundef %type) #2 align 2 personality ptr @__gxx_personality_v0 {
entry:
  %this.addr = alloca ptr, align 8
  %file_name.addr = alloca ptr, align 8
  %number.addr = alloca ptr, align 8
  %type.addr = alloca ptr, align 8
  %found = alloca i64, align 8
  %file = alloca %"class.std::__cxx11::basic_string", align 8
  %exn.slot = alloca ptr, align 8
  %ehselector.slot = alloca i32, align 4
  store ptr %this, ptr %this.addr, align 8
  store ptr %file_name, ptr %file_name.addr, align 8
  store ptr %number, ptr %number.addr, align 8
  store ptr %type, ptr %type.addr, align 8
  %0 = load ptr, ptr %file_name.addr, align 8
  %call = call noundef i64 @_ZNKSt7__cxx1112basic_stringIcSt11char_traitsIcESaIcEE12find_last_ofEPKcm(ptr noundef nonnull align 8 dereferenceable(32) %0, ptr noundef @.str.2, i64 noundef -1) #3
  store i64 %call, ptr %found, align 8
  %1 = load ptr, ptr %file_name.addr, align 8
  %2 = load i64, ptr %found, align 8
  call void @_ZNKSt7__cxx1112basic_stringIcSt11char_traitsIcESaIcEE6substrEmm(ptr sret(%"class.std::__cxx11::basic_string") align 8 %file, ptr noundef nonnull align 8 dereferenceable(32) %1, i64 noundef %2, i64 noundef -1)
  %3 = load ptr, ptr %number.addr, align 8
  %4 = load ptr, ptr %type.addr, align 8
  %call2 = invoke noundef zeroext i1 @_ZN7rocksdb13ParseFileNameERKNSt7__cxx1112basic_stringIcSt11char_traitsIcESaIcEEEPmPNS_8FileTypeEPNS_11WalFileTypeE(ptr noundef nonnull align 8 dereferenceable(32) %file, ptr noundef %3, ptr noundef %4, ptr noundef null)
          to label %invoke.cont unwind label %lpad

invoke.cont:                                      ; preds = %entry
  call void @_ZNSt7__cxx1112basic_stringIcSt11char_traitsIcESaIcEED1Ev(ptr noundef nonnull align 8 dereferenceable(32) %file) #3
  ret i1 %call2

lpad:                                             ; preds = %entry
  %5 = landingpad { ptr, i32 }
          cleanup
  %6 = extractvalue { ptr, i32 } %5, 0
  store ptr %6, ptr %exn.slot, align 8
  %7 = extractvalue { ptr, i32 } %5, 1
  store i32 %7, ptr %ehselector.slot, align 4
  call void @_ZNSt7__cxx1112basic_stringIcSt11char_traitsIcESaIcEED1Ev(ptr noundef nonnull align 8 dereferenceable(32) %file) #3
  br label %eh.resume

eh.resume:                                        ; preds = %lpad
  %exn = load ptr, ptr %exn.slot, align 8
  %sel = load i32, ptr %ehselector.slot, align 4
  %lpad.val = insertvalue { ptr, i32 } poison, ptr %exn, 0
  %lpad.val3 = insertvalue { ptr, i32 } %lpad.val, i32 %sel, 1
  resume { ptr, i32 } %lpad.val3
}