; Function Attrs: mustprogress uwtable
define noundef zeroext i1 @_ZN7rocksdb20FaultInjectionTestFS16TryParseFileNameERKNSt7__cxx1112basic_stringIcSt11char_traitsIcESaIcEEEPmPNS_8FileTypeE(ptr nocapture noundef nonnull readnone align 8 dereferenceable(371) %this, ptr noundef nonnull align 8 dereferenceable(32) %file_name, ptr noundef %number, ptr noundef %type) local_unnamed_addr #2 align 2 personality ptr @__gxx_personality_v0 {
entry:
  %file = alloca %"class.std::__cxx11::basic_string", align 8
  %call = tail call noundef i64 @_ZNKSt7__cxx1112basic_stringIcSt11char_traitsIcESaIcEE12find_last_ofEPKcm(ptr noundef nonnull align 8 dereferenceable(32) %file_name, ptr noundef nonnull @.str.2, i64 noundef -1) #21
  call void @_ZNKSt7__cxx1112basic_stringIcSt11char_traitsIcESaIcEE6substrEmm(ptr nonnull sret(%"class.std::__cxx11::basic_string") align 8 %file, ptr noundef nonnull align 8 dereferenceable(32) %file_name, i64 noundef %call, i64 noundef -1)
  %call2 = invoke noundef zeroext i1 @_ZN7rocksdb13ParseFileNameERKNSt7__cxx1112basic_stringIcSt11char_traitsIcESaIcEEEPmPNS_8FileTypeEPNS_11WalFileTypeE(ptr noundef nonnull align 8 dereferenceable(32) %file, ptr noundef %number, ptr noundef %type, ptr noundef null)
          to label %invoke.cont unwind label %lpad

invoke.cont:                                      ; preds = %entry
  call void @_ZNSt7__cxx1112basic_stringIcSt11char_traitsIcESaIcEED1Ev(ptr noundef nonnull align 8 dereferenceable(32) %file) #21
  ret i1 %call2

lpad:                                             ; preds = %entry
  %0 = landingpad { ptr, i32 }
          cleanup
  call void @_ZNSt7__cxx1112basic_stringIcSt11char_traitsIcESaIcEED1Ev(ptr noundef nonnull align 8 dereferenceable(32) %file) #21
  resume { ptr, i32 } %0
}